target datalayout = "e-m:e-p270:32:32-p271:32:32-p272:64:64-i64:64-i128:128-f80:128-n8:16:32:64-S128"
target triple = "x86_64-pc-linux-gnu"

@.str.3 = private unnamed_addr constant [8 x i8] c"overlap\00", align 1
@.str.4 = private unnamed_addr constant [1 x i8] zeroinitializer, align 1

; Function Attrs: nounwind uwtable
define void @graphAdjustMode(ptr noundef %0, ptr noundef %1, ptr noundef %2) #0 {
  %4 = alloca ptr, align 8
  %5 = alloca ptr, align 8
  %6 = alloca ptr, align 8
  %7 = alloca ptr, align 8
  store ptr %0, ptr %4, align 8, !tbaa !3
  store ptr %1, ptr %5, align 8, !tbaa !49
  store ptr %2, ptr %6, align 8, !tbaa !50
  call void @llvm.lifetime.start.p0(i64 8, ptr %7) #13
  %8 = load ptr, ptr %4, align 8, !tbaa !3
  %9 = call ptr @agget(ptr noundef %8, ptr noundef @.str.3)
  store ptr %9, ptr %7, align 8, !tbaa !50
  %10 = load ptr, ptr %4, align 8, !tbaa !3
  %11 = load ptr, ptr %7, align 8, !tbaa !50
  %12 = icmp ne ptr %11, null
  br i1 %12, label %13, label %15

13:                                               ; preds = %3
  %14 = load ptr, ptr %7, align 8, !tbaa !50
  br label %23

15:                                               ; preds = %3
  %16 = load ptr, ptr %6, align 8, !tbaa !50
  %17 = icmp ne ptr %16, null
  br i1 %17, label %18, label %20

18:                                               ; preds = %15
  %19 = load ptr, ptr %6, align 8, !tbaa !50
  br label %21

20:                                               ; preds = %15
  br label %21

21:                                               ; preds = %20, %18
  %22 = phi ptr [ %19, %18 ], [ @.str.4, %20 ]
  br label %23

23:                                               ; preds = %21, %13
  %24 = phi ptr [ %14, %13 ], [ %22, %21 ]
  %25 = load ptr, ptr %5, align 8, !tbaa !49
  call void @getAdjustMode(ptr noundef %10, ptr noundef %24, ptr noundef %25)
  call void @llvm.lifetime.end.p0(i64 8, ptr %7) #13
  ret void
}