; Function Attrs: nounwind uwtable
define void @graphAdjustMode(ptr noundef %0, ptr noundef captures(none) %1, ptr noundef %2) local_unnamed_addr #0 {
  %4 = tail call ptr @agget(ptr noundef %0, ptr noundef nonnull @.str.3) #20
  %.not = icmp eq ptr %4, null
  %.not7 = icmp eq ptr %2, null
  %5 = select i1 %.not7, ptr @.str.4, ptr %2
  %6 = select i1 %.not, ptr %5, ptr %4
  tail call fastcc void @getAdjustMode(ptr noundef %0, ptr noundef nonnull %6, ptr noundef %1)
  ret void
}